target datalayout = "e-m:e-p270:32:32-p271:32:32-p272:64:64-i64:64-i128:128-f80:128-n8:16:32:64-S128"
target triple = "x86_64-pc-linux-gnu"

@.str.1 = private unnamed_addr constant [19 x i8] c"fcntl(%d, F_SETFL)\00", align 1
@.str.3 = private unnamed_addr constant [19 x i8] c"fcntl(%d, F_SETFD)\00", align 1
@.str.26 = private unnamed_addr constant [9 x i8] c"%s: pipe\00", align 1
@__func__.evutil_make_internal_pipe_ = private unnamed_addr constant [27 x i8] c"evutil_make_internal_pipe_\00", align 1

; Function Attrs: nounwind uwtable
define i32 @evutil_socketpair(i32 noundef %0, i32 noundef %1, i32 noundef %2, ptr noundef %3) #0 {
  %5 = alloca i32, align 4
  %6 = alloca i32, align 4
  %7 = alloca i32, align 4
  %8 = alloca i32, align 4
  %9 = alloca ptr, align 8
  %10 = alloca i32, align 4
  %11 = alloca i32, align 4
  %12 = alloca i32, align 4
  store i32 %0, ptr %6, align 4
  store i32 %1, ptr %7, align 4
  store i32 %2, ptr %8, align 4
  store ptr %3, ptr %9, align 8
  call void @llvm.lifetime.start.p0(i64 4, ptr %10) #11
  store i32 0, ptr %10, align 4
  call void @llvm.lifetime.start.p0(i64 4, ptr %11) #11
  %13 = load i32, ptr %7, align 4
  store i32 %13, ptr %11, align 4
  %14 = load i32, ptr %6, align 4
  %15 = load i32, ptr %7, align 4
  %16 = load i32, ptr %8, align 4
  %17 = load ptr, ptr %9, align 8
  %18 = call i32 @socketpair(i32 noundef %14, i32 noundef %15, i32 noundef %16, ptr noundef %17) #11
  store i32 %18, ptr %10, align 4
  %19 = load i32, ptr %10, align 4
  %20 = icmp ne i32 %19, 0
  br i1 %20, label %21, label %23

21:                                               ; preds = %4
  %22 = load i32, ptr %10, align 4
  store i32 %22, ptr %5, align 4
  store i32 1, ptr %12, align 4
  br label %25

23:                                               ; preds = %4
  %24 = load i32, ptr %10, align 4
  store i32 %24, ptr %5, align 4
  store i32 1, ptr %12, align 4
  br label %25

25:                                               ; preds = %23, %21
  call void @llvm.lifetime.end.p0(i64 4, ptr %11) #11
  call void @llvm.lifetime.end.p0(i64 4, ptr %10) #11
  %26 = load i32, ptr %5, align 4
  ret i32 %26
}

; Function Attrs: nounwind uwtable
define internal i32 @evutil_fast_socket_closeonexec(i32 noundef %0) #0 {
  %2 = alloca i32, align 4
  %3 = alloca i32, align 4
  store i32 %0, ptr %3, align 4
  %4 = load i32, ptr %3, align 4
  %5 = call i32 (i32, i32, ...) @fcntl(i32 noundef %4, i32 noundef 2, i32 noundef 1)
  %6 = icmp eq i32 %5, -1
  br i1 %6, label %7, label %9

7:                                                ; preds = %1
  %8 = load i32, ptr %3, align 4
  call void (ptr, ...) @event_warn(ptr noundef @.str.3, i32 noundef %8)
  store i32 -1, ptr %2, align 4
  br label %10

9:                                                ; preds = %1
  store i32 0, ptr %2, align 4
  br label %10

10:                                               ; preds = %9, %7
  %11 = load i32, ptr %2, align 4
  ret i32 %11
}

; Function Attrs: nounwind uwtable
define internal i32 @evutil_fast_socket_nonblocking(i32 noundef %0) #0 {
  %2 = alloca i32, align 4
  %3 = alloca i32, align 4
  store i32 %0, ptr %3, align 4
  %4 = load i32, ptr %3, align 4
  %5 = call i32 (i32, i32, ...) @fcntl(i32 noundef %4, i32 noundef 4, i32 noundef 2048)
  %6 = icmp eq i32 %5, -1
  br i1 %6, label %7, label %9

7:                                                ; preds = %1
  %8 = load i32, ptr %3, align 4
  call void (ptr, ...) @event_warn(ptr noundef @.str.1, i32 noundef %8)
  store i32 -1, ptr %2, align 4
  br label %10

9:                                                ; preds = %1
  store i32 0, ptr %2, align 4
  br label %10

10:                                               ; preds = %9, %7
  %11 = load i32, ptr %2, align 4
  ret i32 %11
}

; Function Attrs: nounwind uwtable
define i32 @evutil_make_internal_pipe_(ptr noundef %0) #0 {
  %2 = alloca i32, align 4
  %3 = alloca ptr, align 8
  store ptr %0, ptr %3, align 8
  %4 = load ptr, ptr %3, align 8
  %5 = call i32 @pipe2(ptr noundef %4, i32 noundef 526336) #11
  %6 = icmp eq i32 %5, 0
  br i1 %6, label %7, label %8

7:                                                ; preds = %1
  store i32 0, ptr %2, align 4
  br label %61

8:                                                ; preds = %1
  %9 = load ptr, ptr %3, align 8
  %10 = call i32 @pipe(ptr noundef %9) #11
  %11 = icmp eq i32 %10, 0
  br i1 %11, label %12, label %50

12:                                               ; preds = %8
  %13 = load ptr, ptr %3, align 8
  %14 = getelementptr inbounds i32, ptr %13, i64 0
  %15 = load i32, ptr %14, align 4
  %16 = call i32 @evutil_fast_socket_nonblocking(i32 noundef %15)
  %17 = icmp slt i32 %16, 0
  br i1 %17, label %36, label %18

18:                                               ; preds = %12
  %19 = load ptr, ptr %3, align 8
  %20 = getelementptr inbounds i32, ptr %19, i64 1
  %21 = load i32, ptr %20, align 4
  %22 = call i32 @evutil_fast_socket_nonblocking(i32 noundef %21)
  %23 = icmp slt i32 %22, 0
  br i1 %23, label %36, label %24

24:                                               ; preds = %18
  %25 = load ptr, ptr %3, align 8
  %26 = getelementptr inbounds i32, ptr %25, i64 0
  %27 = load i32, ptr %26, align 4
  %28 = call i32 @evutil_fast_socket_closeonexec(i32 noundef %27)
  %29 = icmp slt i32 %28, 0
  br i1 %29, label %36, label %30

30:                                               ; preds = %24
  %31 = load ptr, ptr %3, align 8
  %32 = getelementptr inbounds i32, ptr %31, i64 1
  %33 = load i32, ptr %32, align 4
  %34 = call i32 @evutil_fast_socket_closeonexec(i32 noundef %33)
  %35 = icmp slt i32 %34, 0
  br i1 %35, label %36, label %49

36:                                               ; preds = %30, %24, %18, %12
  %37 = load ptr, ptr %3, align 8
  %38 = getelementptr inbounds i32, ptr %37, i64 0
  %39 = load i32, ptr %38, align 4
  %40 = call i32 @close(i32 noundef %39)
  %41 = load ptr, ptr %3, align 8
  %42 = getelementptr inbounds i32, ptr %41, i64 1
  %43 = load i32, ptr %42, align 4
  %44 = call i32 @close(i32 noundef %43)
  %45 = load ptr, ptr %3, align 8
  %46 = getelementptr inbounds i32, ptr %45, i64 1
  store i32 -1, ptr %46, align 4
  %47 = load ptr, ptr %3, align 8
  %48 = getelementptr inbounds i32, ptr %47, i64 0
  store i32 -1, ptr %48, align 4
  store i32 -1, ptr %2, align 4
  br label %61

49:                                               ; preds = %30
  store i32 0, ptr %2, align 4
  br label %61

50:                                               ; preds = %8
  call void (ptr, ...) @event_warn(ptr noundef @.str.26, ptr noundef @__func__.evutil_make_internal_pipe_)
  br label %51

51:                                               ; preds = %50
  %52 = load ptr, ptr %3, align 8
  %53 = call i32 @evutil_socketpair(i32 noundef 1, i32 noundef 526337, i32 noundef 0, ptr noundef %52)
  %54 = icmp ne i32 %53, 0
  br i1 %54, label %55, label %60

55:                                               ; preds = %51
  %56 = load ptr, ptr %3, align 8
  %57 = getelementptr inbounds i32, ptr %56, i64 1
  store i32 -1, ptr %57, align 4
  %58 = load ptr, ptr %3, align 8
  %59 = getelementptr inbounds i32, ptr %58, i64 0
  store i32 -1, ptr %59, align 4
  store i32 -1, ptr %2, align 4
  br label %61

60:                                               ; preds = %51
  store i32 0, ptr %2, align 4
  br label %61

61:                                               ; preds = %60, %55, %49, %36, %7
  %62 = load i32, ptr %2, align 4
  ret i32 %62
}