; Function Attrs: nounwind uwtable
define range(i32 -1, 1) i32 @evutil_make_internal_pipe_(ptr noundef %0) local_unnamed_addr #0 {
  %2 = tail call i32 @pipe2(ptr noundef %0, i32 noundef 526336) #30
  %3 = icmp eq i32 %2, 0
  br i1 %3, label %evutil_fast_socket_closeonexec.exit17, label %4

4:                                                ; preds = %1
  %5 = tail call i32 @pipe(ptr noundef %0) #30
  %6 = icmp eq i32 %5, 0
  br i1 %6, label %7, label %27

7:                                                ; preds = %4
  %8 = load i32, ptr %0, align 4
  %9 = tail call i32 (i32, i32, ...) @fcntl(i32 noundef %8, i32 noundef 4, i32 noundef 2048) #30
  %10 = icmp eq i32 %9, -1
  br i1 %10, label %evutil_fast_socket_nonblocking.exit.thread, label %evutil_fast_socket_nonblocking.exit

evutil_fast_socket_nonblocking.exit.thread:       ; preds = %7
  tail call void (ptr, ...) @event_warn(ptr noundef nonnull @.str.1, i32 noundef %8) #30
  br label %21

evutil_fast_socket_nonblocking.exit:              ; preds = %7
  %11 = getelementptr inbounds nuw i8, ptr %0, i64 4
  %12 = load i32, ptr %11, align 4
  %13 = tail call i32 (i32, i32, ...) @fcntl(i32 noundef %12, i32 noundef 4, i32 noundef 2048) #30
  %14 = icmp eq i32 %13, -1
  br i1 %14, label %evutil_fast_socket_nonblocking.exit14.thread, label %evutil_fast_socket_nonblocking.exit14

evutil_fast_socket_nonblocking.exit14.thread:     ; preds = %evutil_fast_socket_nonblocking.exit
  tail call void (ptr, ...) @event_warn(ptr noundef nonnull @.str.1, i32 noundef %12) #30
  br label %21

evutil_fast_socket_nonblocking.exit14:            ; preds = %evutil_fast_socket_nonblocking.exit
  %15 = load i32, ptr %0, align 4
  %16 = tail call i32 (i32, i32, ...) @fcntl(i32 noundef %15, i32 noundef 2, i32 noundef 1) #30
  %17 = icmp eq i32 %16, -1
  br i1 %17, label %evutil_fast_socket_closeonexec.exit.thread, label %evutil_fast_socket_closeonexec.exit

evutil_fast_socket_closeonexec.exit.thread:       ; preds = %evutil_fast_socket_nonblocking.exit14
  tail call void (ptr, ...) @event_warn(ptr noundef nonnull @.str.3, i32 noundef %15) #30
  br label %21

evutil_fast_socket_closeonexec.exit:              ; preds = %evutil_fast_socket_nonblocking.exit14
  %18 = load i32, ptr %11, align 4
  %19 = tail call i32 (i32, i32, ...) @fcntl(i32 noundef %18, i32 noundef 2, i32 noundef 1) #30
  %20 = icmp eq i32 %19, -1
  br i1 %20, label %evutil_fast_socket_closeonexec.exit17.thread, label %evutil_fast_socket_closeonexec.exit17

evutil_fast_socket_closeonexec.exit17.thread:     ; preds = %evutil_fast_socket_closeonexec.exit
  tail call void (ptr, ...) @event_warn(ptr noundef nonnull @.str.3, i32 noundef %18) #30
  br label %21

21:                                               ; preds = %evutil_fast_socket_closeonexec.exit17.thread, %evutil_fast_socket_closeonexec.exit.thread, %evutil_fast_socket_nonblocking.exit14.thread, %evutil_fast_socket_nonblocking.exit.thread
  %22 = load i32, ptr %0, align 4
  %23 = tail call i32 @close(i32 noundef %22) #30
  %24 = getelementptr inbounds nuw i8, ptr %0, i64 4
  %25 = load i32, ptr %24, align 4
  %26 = tail call i32 @close(i32 noundef %25) #30
  store i32 -1, ptr %24, align 4
  br label %evutil_fast_socket_closeonexec.exit17.sink.split

27:                                               ; preds = %4
  tail call void (ptr, ...) @event_warn(ptr noundef nonnull @.str.26, ptr noundef nonnull @__func__.evutil_make_internal_pipe_) #30
  %28 = tail call i32 @socketpair(i32 noundef 1, i32 noundef 526337, i32 noundef 0, ptr noundef %0) #30
  %.not = icmp eq i32 %28, 0
  br i1 %.not, label %evutil_fast_socket_closeonexec.exit17, label %29

29:                                               ; preds = %27
  %30 = getelementptr inbounds nuw i8, ptr %0, i64 4
  store i32 -1, ptr %30, align 4
  br label %evutil_fast_socket_closeonexec.exit17.sink.split

evutil_fast_socket_closeonexec.exit17.sink.split: ; preds = %21, %29
  store i32 -1, ptr %0, align 4
  br label %evutil_fast_socket_closeonexec.exit17

evutil_fast_socket_closeonexec.exit17:            ; preds = %evutil_fast_socket_closeonexec.exit17.sink.split, %evutil_fast_socket_closeonexec.exit, %27, %1
  %.0 = phi i32 [ 0, %1 ], [ 0, %27 ], [ 0, %evutil_fast_socket_closeonexec.exit ], [ -1, %evutil_fast_socket_closeonexec.exit17.sink.split ]
  ret i32 %.0
}